; Function Attrs: nounwind uwtable
define hidden i32 @_PyEval_SetOpcodeTrace(ptr noundef readonly captures(none) %0, i1 noundef zeroext %1) local_unnamed_addr #0 {
  %3 = alloca i32, align 4
  %4 = getelementptr inbounds nuw i8, ptr %0, i64 24
  %5 = load ptr, ptr %4, align 8, !tbaa !4
  %.val = load i64, ptr %5, align 8, !tbaa !15
  %6 = inttoptr i64 %.val to ptr
  call void @llvm.lifetime.start.p0(i64 4, ptr nonnull %3) #4
  store i32 0, ptr %3, align 4, !tbaa !16
  %7 = call i32 @_PyMonitoring_GetLocalEvents(ptr noundef %6, i32 noundef 7, ptr noundef nonnull %3) #4
  %8 = icmp slt i32 %7, 0
  br i1 %8, label %20, label %9

9:                                                ; preds = %2
  %10 = load i32, ptr %3, align 4, !tbaa !16
  %11 = and i32 %10, 64
  %.not4 = icmp eq i32 %11, 0
  br i1 %1, label %12, label %15

12:                                               ; preds = %9
  br i1 %.not4, label %13, label %20

13:                                               ; preds = %12
  %14 = or disjoint i32 %10, 64
  br label %18

15:                                               ; preds = %9
  br i1 %.not4, label %20, label %16

16:                                               ; preds = %15
  %17 = and i32 %10, -65
  br label %18

18:                                               ; preds = %16, %13
  %storemerge = phi i32 [ %17, %16 ], [ %14, %13 ]
  store i32 %storemerge, ptr %3, align 4, !tbaa !16
  %19 = call i32 @_PyMonitoring_SetLocalEvents(ptr noundef %6, i32 noundef 7, i32 noundef %storemerge) #4
  br label %20

20:                                               ; preds = %15, %12, %2, %18
  %.0 = phi i32 [ %19, %18 ], [ -1, %2 ], [ 0, %12 ], [ 0, %15 ]
  call void @llvm.lifetime.end.p0(i64 4, ptr nonnull %3) #4
  ret i32 %.0
}